target datalayout = "e-m:e-p270:32:32-p271:32:32-p272:64:64-i64:64-i128:128-f80:128-n8:16:32:64-S128"
target triple = "x86_64-pc-linux-gnu"

@ir_perf_map_register.fp = internal global ptr null, align 8
@.str.2 = private unnamed_addr constant [17 x i8] c"/tmp/perf-%d.map\00", align 1
@.str.3 = private unnamed_addr constant [2 x i8] c"w\00", align 1
@.str.4 = private unnamed_addr constant [12 x i8] c"%zx %zx %s\0A\00", align 1

; Function Attrs: nounwind uwtable
define hidden void @ir_perf_map_register(ptr noundef %0, ptr noundef %1, i64 noundef %2) #0 {
  %4 = alloca ptr, align 8
  %5 = alloca ptr, align 8
  %6 = alloca i64, align 8
  %7 = alloca [64 x i8], align 16
  store ptr %0, ptr %4, align 8
  store ptr %1, ptr %5, align 8
  store i64 %2, ptr %6, align 8
  %8 = load ptr, ptr @ir_perf_map_register.fp, align 8
  %9 = icmp ne ptr %8, null
  br i1 %9, label %21, label %10

10:                                               ; preds = %3
  %11 = getelementptr inbounds [64 x i8], ptr %7, i64 0, i64 0
  %12 = call i32 @getpid() #5
  %13 = call i32 (ptr, i64, ptr, ...) @snprintf(ptr noundef %11, i64 noundef 64, ptr noundef @.str.2, i32 noundef %12) #5
  %14 = getelementptr inbounds [64 x i8], ptr %7, i64 0, i64 0
  %15 = call noalias ptr @fopen(ptr noundef %14, ptr noundef @.str.3)
  store ptr %15, ptr @ir_perf_map_register.fp, align 8
  %16 = load ptr, ptr @ir_perf_map_register.fp, align 8
  %17 = icmp ne ptr %16, null
  br i1 %17, label %19, label %18

18:                                               ; preds = %10
  br label %28

19:                                               ; preds = %10
  %20 = load ptr, ptr @ir_perf_map_register.fp, align 8
  call void @setlinebuf(ptr noundef %20) #5
  br label %21

21:                                               ; preds = %19, %3
  %22 = load ptr, ptr @ir_perf_map_register.fp, align 8
  %23 = load ptr, ptr %5, align 8
  %24 = ptrtoint ptr %23 to i64
  %25 = load i64, ptr %6, align 8
  %26 = load ptr, ptr %4, align 8
  %27 = call i32 (ptr, ptr, ...) @fprintf(ptr noundef %22, ptr noundef @.str.4, i64 noundef %24, i64 noundef %25, ptr noundef %26) #5
  br label %28

28:                                               ; preds = %21, %18
  ret void
}