; Function Attrs: nounwind uwtable
define hidden void @ir_perf_map_register(ptr noundef %0, ptr noundef %1, i64 noundef %2) local_unnamed_addr #0 {
  %4 = alloca [64 x i8], align 16
  %5 = load ptr, ptr @ir_perf_map_register.fp, align 8
  %.not = icmp eq ptr %5, null
  br i1 %.not, label %6, label %11

6:                                                ; preds = %3
  %7 = tail call i32 @getpid() #7
  %8 = call i32 (ptr, i64, ptr, ...) @snprintf(ptr noundef nonnull dereferenceable(1) %4, i64 noundef 64, ptr noundef nonnull @.str.2, i32 noundef %7) #7
  %9 = call noalias ptr @fopen(ptr noundef nonnull %4, ptr noundef nonnull @.str.3)
  store ptr %9, ptr @ir_perf_map_register.fp, align 8
  %.not2 = icmp eq ptr %9, null
  br i1 %.not2, label %15, label %10

10:                                               ; preds = %6
  tail call void @setlinebuf(ptr noundef nonnull %9) #7
  %.pre = load ptr, ptr @ir_perf_map_register.fp, align 8
  br label %11

11:                                               ; preds = %10, %3
  %12 = phi ptr [ %.pre, %10 ], [ %5, %3 ]
  %13 = ptrtoint ptr %1 to i64
  %14 = tail call i32 (ptr, ptr, ...) @fprintf(ptr noundef %12, ptr noundef nonnull @.str.4, i64 noundef %13, i64 noundef %2, ptr noundef %0) #7
  br label %15

15:                                               ; preds = %6, %11
  ret void
}